target datalayout = "e-m:e-p270:32:32-p271:32:32-p272:64:64-i64:64-i128:128-f80:128-n8:16:32:64-S128"
target triple = "x86_64-unknown-linux-gnu"

%"class.std::set.0" = type { %"class.std::_Rb_tree.1" }
%"class.std::_Rb_tree.1" = type { %"struct.std::_Rb_tree<QuantLib::Observer *, QuantLib::Observer *, std::_Identity<QuantLib::Observer *>, std::less<QuantLib::Observer *>>::_Rb_tree_impl" }
%"struct.std::_Rb_tree<QuantLib::Observer *, QuantLib::Observer *, std::_Identity<QuantLib::Observer *>, std::less<QuantLib::Observer *>>::_Rb_tree_impl" = type { [8 x i8], %"struct.std::_Rb_tree_header" }
%"struct.std::_Rb_tree_header" = type { %"struct.std::_Rb_tree_node_base", i64 }
%"struct.std::_Rb_tree_node_base" = type { i32, ptr, ptr, ptr }
%"class.std::set" = type { %"class.std::_Rb_tree" }
%"class.std::_Rb_tree" = type { %"struct.std::_Rb_tree<boost::shared_ptr<QuantLib::Observable>, boost::shared_ptr<QuantLib::Observable>, std::_Identity<boost::shared_ptr<QuantLib::Observable>>, std::less<boost::shared_ptr<QuantLib::Observable>>>::_Rb_tree_impl" }
%"struct.std::_Rb_tree<boost::shared_ptr<QuantLib::Observable>, boost::shared_ptr<QuantLib::Observable>, std::_Identity<boost::shared_ptr<QuantLib::Observable>>, std::less<boost::shared_ptr<QuantLib::Observable>>>::_Rb_tree_impl" = type { [8 x i8], %"struct.std::_Rb_tree_header" }
%"class.boost::detail::shared_count" = type { ptr }
%"class.QuantLib::Observable" = type { ptr, %"class.std::set.0" }
%"class.QuantLib::Array" = type { %"class.std::unique_ptr", i64 }
%"class.std::unique_ptr" = type { %"struct.std::__uniq_ptr_data" }
%"struct.std::__uniq_ptr_data" = type { %"class.std::__uniq_ptr_impl" }
%"class.std::__uniq_ptr_impl" = type { %"class.std::tuple" }
%"class.std::tuple" = type { %"struct.std::_Tuple_impl" }
%"struct.std::_Tuple_impl" = type { %"struct.std::_Head_base.25" }
%"struct.std::_Head_base.25" = type { ptr }
%"class.QuantLib::HybridHestonHullWhiteProcess" = type { %"class.QuantLib::StochasticProcess", %"class.boost::shared_ptr.40", %"class.boost::shared_ptr.41", %"class.boost::shared_ptr.42", double, i32, double, double, double }
%"class.QuantLib::StochasticProcess" = type { %"class.QuantLib::Observer", %"class.QuantLib::Observable", %"class.boost::shared_ptr.22" }
%"class.QuantLib::Observer" = type { ptr, %"class.std::set" }
%"class.boost::shared_ptr.22" = type { ptr, %"class.boost::detail::shared_count" }
%"class.boost::shared_ptr.40" = type { ptr, %"class.boost::detail::shared_count" }
%"class.boost::shared_ptr.41" = type { ptr, %"class.boost::detail::shared_count" }
%"class.boost::shared_ptr.42" = type { ptr, %"class.boost::detail::shared_count" }

@.str.13 = private unnamed_addr constant [8 x i8] c"px != 0\00", align 1
@.str.14 = private unnamed_addr constant [102 x i8] c"generated/home/dtcxzyw/WorkSpace/SDK/vcpkg/installed/x64-linux/include/boost/smart_ptr/shared_ptr.hpp\00", align 1
@__PRETTY_FUNCTION__._ZNK5boost10shared_ptrIN8QuantLib9HullWhiteEEptEv = private unnamed_addr constant [135 x i8] c"typename boost::detail::sp_member_access<T>::type boost::shared_ptr<QuantLib::HullWhite>::operator->() const [T = QuantLib::HullWhite]\00", align 1

; Function Attrs: mustprogress nounwind uwtable
define linkonce_odr noundef nonnull align 8 dereferenceable(8) ptr @_ZNSt10_Head_baseILm0EPdLb0EE7_M_headERKS1_(ptr noundef nonnull align 8 dereferenceable(8) %__b) #1 comdat align 2 {
entry:
  %__b.addr = alloca ptr, align 8
  store ptr %__b, ptr %__b.addr, align 8, !tbaa !3
  %0 = load ptr, ptr %__b.addr, align 8, !tbaa !3
  %_M_head_impl = getelementptr inbounds nuw %"struct.std::_Head_base.25", ptr %0, i32 0, i32 0
  ret ptr %_M_head_impl
}

; Function Attrs: mustprogress nounwind uwtable
define linkonce_odr noundef nonnull align 8 dereferenceable(8) ptr @_ZNSt11_Tuple_implILm0EJPdSt14default_deleteIA_dEEE7_M_headERKS4_(ptr noundef nonnull align 8 dereferenceable(8) %__t) #1 comdat align 2 {
entry:
  %__t.addr = alloca ptr, align 8
  store ptr %__t, ptr %__t.addr, align 8, !tbaa !3
  %0 = load ptr, ptr %__t.addr, align 8, !tbaa !3
  %call = call noundef nonnull align 8 dereferenceable(8) ptr @_ZNSt10_Head_baseILm0EPdLb0EE7_M_headERKS1_(ptr noundef nonnull align 8 dereferenceable(8) %0) #14
  ret ptr %call
}

; Function Attrs: mustprogress nounwind uwtable
define linkonce_odr noundef nonnull align 8 dereferenceable(8) ptr @_ZSt12__get_helperILm0EPdJSt14default_deleteIA_dEEERKT0_RKSt11_Tuple_implIXT_EJS4_DpT1_EE(ptr noundef nonnull align 8 dereferenceable(8) %__t) #1 comdat {
entry:
  %__t.addr = alloca ptr, align 8
  store ptr %__t, ptr %__t.addr, align 8, !tbaa !3
  %0 = load ptr, ptr %__t.addr, align 8, !tbaa !3
  %call = call noundef nonnull align 8 dereferenceable(8) ptr @_ZNSt11_Tuple_implILm0EJPdSt14default_deleteIA_dEEE7_M_headERKS4_(ptr noundef nonnull align 8 dereferenceable(8) %0) #14
  ret ptr %call
}

; Function Attrs: mustprogress nounwind uwtable
define linkonce_odr noundef nonnull align 8 dereferenceable(8) ptr @_ZSt3getILm0EJPdSt14default_deleteIA_dEEERKNSt13tuple_elementIXT_ESt5tupleIJDpT0_EEE4typeERKS8_(ptr noundef nonnull align 8 dereferenceable(8) %__t) #1 comdat {
entry:
  %__t.addr = alloca ptr, align 8
  store ptr %__t, ptr %__t.addr, align 8, !tbaa !3
  %0 = load ptr, ptr %__t.addr, align 8, !tbaa !3
  %call = call noundef nonnull align 8 dereferenceable(8) ptr @_ZSt12__get_helperILm0EPdJSt14default_deleteIA_dEEERKT0_RKSt11_Tuple_implIXT_EJS4_DpT1_EE(ptr noundef nonnull align 8 dereferenceable(8) %0) #14
  ret ptr %call
}

; Function Attrs: mustprogress nounwind uwtable
define linkonce_odr noundef ptr @_ZNKSt15__uniq_ptr_implIdSt14default_deleteIA_dEE6_M_ptrEv(ptr noundef nonnull align 8 dereferenceable(8) %this) #1 comdat align 2 {
entry:
  %this.addr = alloca ptr, align 8
  store ptr %this, ptr %this.addr, align 8, !tbaa !3
  %this1 = load ptr, ptr %this.addr, align 8
  %_M_t = getelementptr inbounds nuw %"class.std::__uniq_ptr_impl", ptr %this1, i32 0, i32 0
  %call = call noundef nonnull align 8 dereferenceable(8) ptr @_ZSt3getILm0EJPdSt14default_deleteIA_dEEERKNSt13tuple_elementIXT_ESt5tupleIJDpT0_EEE4typeERKS8_(ptr noundef nonnull align 8 dereferenceable(8) %_M_t) #14
  %0 = load ptr, ptr %call, align 8, !tbaa !3
  ret ptr %0
}

; Function Attrs: mustprogress nounwind uwtable
define linkonce_odr noundef ptr @_ZNKSt10unique_ptrIA_dSt14default_deleteIS0_EE3getEv(ptr noundef nonnull align 8 dereferenceable(8) %this) #1 comdat align 2 {
entry:
  %this.addr = alloca ptr, align 8
  store ptr %this, ptr %this.addr, align 8, !tbaa !3
  %this1 = load ptr, ptr %this.addr, align 8
  %_M_t = getelementptr inbounds nuw %"class.std::unique_ptr", ptr %this1, i32 0, i32 0
  %call = call noundef ptr @_ZNKSt15__uniq_ptr_implIdSt14default_deleteIA_dEE6_M_ptrEv(ptr noundef nonnull align 8 dereferenceable(8) %_M_t) #14
  ret ptr %call
}

; Function Attrs: mustprogress uwtable
define linkonce_odr noundef double @_ZNK8QuantLib20OneFactorAffineModel12discountBondEddd(ptr noundef nonnull align 8 dereferenceable(88) %this, double noundef %now, double noundef %maturity, double noundef %rate) #2 comdat align 2 {
entry:
  %this.addr = alloca ptr, align 8
  %now.addr = alloca double, align 8
  %maturity.addr = alloca double, align 8
  %rate.addr = alloca double, align 8
  store ptr %this, ptr %this.addr, align 8, !tbaa !3
  store double %now, ptr %now.addr, align 8, !tbaa !14
  store double %maturity, ptr %maturity.addr, align 8, !tbaa !14
  store double %rate, ptr %rate.addr, align 8, !tbaa !14
  %this1 = load ptr, ptr %this.addr, align 8
  %0 = load double, ptr %now.addr, align 8, !tbaa !14
  %1 = load double, ptr %maturity.addr, align 8, !tbaa !14
  %vtable = load ptr, ptr %this1, align 8, !tbaa !12
  %vfn = getelementptr inbounds ptr, ptr %vtable, i64 10
  %2 = load ptr, ptr %vfn, align 8
  %call = call noundef double %2(ptr noundef nonnull align 8 dereferenceable(88) %this1, double noundef %0, double noundef %1)
  %3 = load double, ptr %now.addr, align 8, !tbaa !14
  %4 = load double, ptr %maturity.addr, align 8, !tbaa !14
  %vtable2 = load ptr, ptr %this1, align 8, !tbaa !12
  %vfn3 = getelementptr inbounds ptr, ptr %vtable2, i64 11
  %5 = load ptr, ptr %vfn3, align 8
  %call4 = call noundef double %5(ptr noundef nonnull align 8 dereferenceable(88) %this1, double noundef %3, double noundef %4)
  %fneg = fneg double %call4
  %6 = load double, ptr %rate.addr, align 8, !tbaa !14
  %mul = fmul double %fneg, %6
  %call5 = call double @exp(double noundef %mul) #14, !tbaa !42
  %mul6 = fmul double %call, %call5
  ret double %mul6
}

; Function Attrs: inlinehint mustprogress nounwind uwtable
define linkonce_odr noundef double @_ZNK8QuantLib5ArrayixEm(ptr noundef nonnull align 8 dereferenceable(16) %this, i64 noundef %i) #5 comdat align 2 {
entry:
  %this.addr = alloca ptr, align 8
  %i.addr = alloca i64, align 8
  store ptr %this, ptr %this.addr, align 8, !tbaa !3
  store i64 %i, ptr %i.addr, align 8, !tbaa !65
  %this1 = load ptr, ptr %this.addr, align 8
  %data_ = getelementptr inbounds nuw %"class.QuantLib::Array", ptr %this1, i32 0, i32 0
  %call = call noundef ptr @_ZNKSt10unique_ptrIA_dSt14default_deleteIS0_EE3getEv(ptr noundef nonnull align 8 dereferenceable(8) %data_) #14
  %0 = load i64, ptr %i.addr, align 8, !tbaa !65
  %arrayidx = getelementptr inbounds nuw double, ptr %call, i64 %0
  %1 = load double, ptr %arrayidx, align 8, !tbaa !14
  ret double %1
}

; Function Attrs: mustprogress uwtable
define linkonce_odr noundef ptr @_ZNK5boost10shared_ptrIN8QuantLib9HullWhiteEEptEv(ptr noundef nonnull align 8 dereferenceable(16) %this) #2 comdat align 2 {
entry:
  %this.addr = alloca ptr, align 8
  store ptr %this, ptr %this.addr, align 8, !tbaa !3
  %this1 = load ptr, ptr %this.addr, align 8
  %px = getelementptr inbounds nuw %"class.boost::shared_ptr.42", ptr %this1, i32 0, i32 0
  %0 = load ptr, ptr %px, align 8, !tbaa !49
  %cmp = icmp ne ptr %0, null
  %lnot = xor i1 %cmp, true
  %lnot2 = xor i1 %lnot, true
  %conv = zext i1 %lnot2 to i64
  %expval = call i64 @llvm.expect.i64(i64 %conv, i64 1)
  %tobool = icmp ne i64 %expval, 0
  br i1 %tobool, label %cond.true, label %cond.false

cond.true:                                        ; preds = %entry
  br label %cond.end

cond.false:                                       ; preds = %entry
  call void @_ZN5boost16assertion_failedEPKcS1_S1_l(ptr noundef @.str.13, ptr noundef @__PRETTY_FUNCTION__._ZNK5boost10shared_ptrIN8QuantLib9HullWhiteEEptEv, ptr noundef @.str.14, i64 noundef 784)
  br label %cond.end

cond.end:                                         ; preds = %cond.false, %cond.true
  %px3 = getelementptr inbounds nuw %"class.boost::shared_ptr.42", ptr %this1, i32 0, i32 0
  %1 = load ptr, ptr %px3, align 8, !tbaa !49
  ret ptr %1
}

; Function Attrs: mustprogress uwtable
define noundef double @_ZNK8QuantLib28HybridHestonHullWhiteProcess9numeraireEdRKNS_5ArrayE(ptr noundef nonnull align 8 dereferenceable(216) %this, double noundef %t, ptr noundef nonnull align 8 dereferenceable(16) %x) #2 align 2 {
entry:
  %this.addr = alloca ptr, align 8
  %t.addr = alloca double, align 8
  %x.addr = alloca ptr, align 8
  store ptr %this, ptr %this.addr, align 8, !tbaa !3
  store double %t, ptr %t.addr, align 8, !tbaa !14
  store ptr %x, ptr %x.addr, align 8, !tbaa !3
  %this1 = load ptr, ptr %this.addr, align 8
  %hullWhiteModel_ = getelementptr inbounds nuw %"class.QuantLib::HybridHestonHullWhiteProcess", ptr %this1, i32 0, i32 3
  %call = call noundef ptr @_ZNK5boost10shared_ptrIN8QuantLib9HullWhiteEEptEv(ptr noundef nonnull align 8 dereferenceable(16) %hullWhiteModel_)
  %0 = load double, ptr %t.addr, align 8, !tbaa !14
  %T_ = getelementptr inbounds nuw %"class.QuantLib::HybridHestonHullWhiteProcess", ptr %this1, i32 0, i32 7
  %1 = load double, ptr %T_, align 8, !tbaa !45
  %2 = load ptr, ptr %x.addr, align 8, !tbaa !3
  %call2 = call noundef double @_ZNK8QuantLib5ArrayixEm(ptr noundef nonnull align 8 dereferenceable(16) %2, i64 noundef 2)
  %call3 = call noundef double @_ZNK8QuantLib20OneFactorAffineModel12discountBondEddd(ptr noundef nonnull align 8 dereferenceable(88) %call, double noundef %0, double noundef %1, double noundef %call2)
  %endDiscount_ = getelementptr inbounds nuw %"class.QuantLib::HybridHestonHullWhiteProcess", ptr %this1, i32 0, i32 8
  %3 = load double, ptr %endDiscount_, align 8, !tbaa !46
  %div = fdiv double %call3, %3
  ret double %div
}