; Function Attrs: mustprogress uwtable
define noundef double @_ZNK8QuantLib28HybridHestonHullWhiteProcess9numeraireEdRKNS_5ArrayE(ptr nocapture noundef nonnull readonly align 8 dereferenceable(216) %this, double noundef %t, ptr nocapture noundef nonnull readonly align 8 dereferenceable(16) %x) local_unnamed_addr #6 align 2 {
entry:
  %hullWhiteModel_ = getelementptr inbounds nuw i8, ptr %this, i64 160
  %0 = load ptr, ptr %hullWhiteModel_, align 8, !tbaa !44
  %cmp.not.i = icmp eq ptr %0, null
  br i1 %cmp.not.i, label %cond.false.i, label %_ZNK5boost10shared_ptrIN8QuantLib9HullWhiteEEptEv.exit, !prof !43

cond.false.i:                                     ; preds = %entry
  tail call void @_ZN5boost16assertion_failedEPKcS1_S1_l(ptr noundef nonnull @.str.13, ptr noundef nonnull @__PRETTY_FUNCTION__._ZNK5boost10shared_ptrIN8QuantLib9HullWhiteEEptEv, ptr noundef nonnull @.str.14, i64 noundef 784)
  %.pre.i = load ptr, ptr %hullWhiteModel_, align 8, !tbaa !44
  br label %_ZNK5boost10shared_ptrIN8QuantLib9HullWhiteEEptEv.exit

_ZNK5boost10shared_ptrIN8QuantLib9HullWhiteEEptEv.exit: ; preds = %entry, %cond.false.i
  %1 = phi ptr [ %0, %entry ], [ %.pre.i, %cond.false.i ]
  %T_ = getelementptr inbounds nuw i8, ptr %this, i64 200
  %2 = load double, ptr %T_, align 8, !tbaa !75
  %3 = load ptr, ptr %x, align 8, !tbaa !3
  %arrayidx.i = getelementptr inbounds nuw i8, ptr %3, i64 16
  %4 = load double, ptr %arrayidx.i, align 8, !tbaa !86
  %vtable.i = load ptr, ptr %1, align 8, !tbaa !35
  %vfn.i = getelementptr inbounds i8, ptr %vtable.i, i64 80
  %5 = load ptr, ptr %vfn.i, align 8
  %call.i = tail call noundef double %5(ptr noundef nonnull align 8 dereferenceable(88) %1, double noundef %t, double noundef %2)
  %vtable2.i = load ptr, ptr %1, align 8, !tbaa !35
  %vfn3.i = getelementptr inbounds i8, ptr %vtable2.i, i64 88
  %6 = load ptr, ptr %vfn3.i, align 8
  %call4.i = tail call noundef double %6(ptr noundef nonnull align 8 dereferenceable(88) %1, double noundef %t, double noundef %2)
  %fneg.i = fneg double %call4.i
  %mul.i = fmul double %4, %fneg.i
  %call5.i = tail call double @exp(double noundef %mul.i) #26, !tbaa !73
  %mul6.i = fmul double %call.i, %call5.i
  %endDiscount_ = getelementptr inbounds nuw i8, ptr %this, i64 208
  %7 = load double, ptr %endDiscount_, align 8, !tbaa !78
  %div = fdiv double %mul6.i, %7
  ret double %div
}